Certificate:
    Data:
        Version: 3 (0x2)
        Serial Number: 2 (0x2)
        Signature Algorithm: sha1WithRSAEncryption
        Issuer: C=JP, ST=Tokyo, O=Nippon C.A.D. Co.,Ltd., OU=IT Division, CN=Root CA/emailAddress=komata@ncad.co.jp
        Validity
            Not Before: Nov 25 22:53:04 2010 GMT
            Not After : Nov 25 22:53:04 2011 GMT
        Subject: C=JP, ST=Tokyo, O=Nippon C.A.D. Co.,Ltd., OU=IT Division, CN=localhost.localdomain/emailAddress=komata@ncad.co.jp
        Subject Public Key Info:
            Public Key Algorithm: rsaEncryption
            RSA Public Key: (2048 bit)
                Modulus (2048 bit):
                    00:eb:f7:d3:34:5c:0e:0d:c7:62:8e:3f:6b:04:a6:
                    f7:a3:8e:98:37:5e:e2:88:a4:8f:ce:06:d0:fb:e8:
                    79:b9:c3:de:17:9a:6b:1f:54:aa:6c:a4:ea:09:2a:
                    16:bc:70:2c:68:5d:d9:b7:a4:26:66:49:f7:01:75:
                    e6:7f:07:c4:48:a4:d3:e7:86:61:d4:18:0d:59:54:
                    87:c1:16:6f:b4:7e:6e:2d:70:ed:e7:3d:c7:b9:3b:
                    80:ad:92:bc:7d:c4:cc:a6:49:c0:45:e6:fa:b0:83:
                    fc:d2:ed:a8:01:db:f1:59:16:a8:c0:df:f7:38:1c:
                    41:d3:1c:c3:3c:70:e1:0f:27:ff:60:ab:75:3e:fa:
                    2f:ce:fe:ce:03:ee:39:e6:24:49:c8:20:df:5d:e7:
                    e5:26:f5:04:38:72:97:7f:c5:b7:bc:4f:ed:ef:09:
                    86:fa:47:91:ab:04:80:e3:db:ef:54:e8:8e:4c:32:
                    3f:9f:8a:e4:d2:f3:80:5d:3f:d8:7c:3b:69:ab:c4:
                    0c:76:66:83:f0:73:fb:02:b8:a3:35:d6:81:11:cc:
                    ee:38:ad:96:1c:b8:6a:da:47:1b:32:49:33:85:ac:
                    a8:21:19:e6:c7:a9:f3:c8:b5:d7:41:b4:5f:bd:c6:
                    7f:34:c4:0c:8e:ec:2d:6c:4e:7e:15:0b:4a:c3:79:
                    d8:1d
                Exponent: 65537 (0x10001)
        X509v3 extensions:
            X509v3 Basic Constraints: 
                CA:FALSE
            Netscape Cert Type: 
                SSL Client, S/MIME
            Netscape Comment: 
                OpenSSL Generated Certificate
            X509v3 Subject Key Identifier: 
                57:B5:42:71:6A:87:3F:27:55:C7:C1:89:C4:11:57:13:11:B9:1D:95
            X509v3 Authority Key Identifier: 
                keyid:65:27:91:0E:5A:C8:68:86:5D:3E:EA:40:86:CF:98:8D:20:02:6F:5A

            X509v3 Subject Alternative Name: 
                DNS:localhost.localdomain
    Signature Algorithm: sha1WithRSAEncryption
        33:ef:70:9e:20:ce:fc:b2:75:5c:bc:82:00:73:2a:03:da:0a:
        69:f8:5d:9c:4c:bd:f5:d4:c4:4c:79:37:89:85:49:47:fc:32:
        e9:64:fd:6d:07:fb:33:8e:dd:cc:15:2a:45:6a:f8:4a:ab:65:
        f2:33:78:ea:19:ec:7e:f9:9d:32:3b:7a:51:2e:7b:11:fa:82:
        e9:e8:8c:f8:bf:26:1a:e2:1e:58:8a:52:72:a5:a0:85:fb:07:
        53:2d:06:aa:3b:3a:29:4a:c6:95:35:fb:23:f2:c0:3e:9b:74:
        32:4b:b0:54:77:02:d9:50:38:3c:1c:78:ee:3b:92:e3:a3:63:
        13:b8:f5:f7:82:55:23:9d:60:5a:25:53:a8:22:60:d5:de:f8:
        4a:45:f3:ae:ae:56:42:a0:5e:52:af:80:f1:9e:f4:74:84:3d:
        50:7d:8e:ea:49:5f:5e:c7:12:48:61:df:a4:72:ad:5a:d0:b0:
        27:93:31:67:84:73:07:99:c3:c6:ee:67:23:4d:57:ff:e7:f3:
        dc:fe:4b:9d:e4:68:a0:9a:2e:33:d3:b6:dd:28:43:22:6e:47:
        95:e5:ee:27:84:5f:af:7e:bb:ee:f7:20:9e:31:fc:c0:63:9e:
        99:99:2c:0a:09:f4:fd:36:ed:72:90:70:0e:e7:47:64:c2:7f:
        e6:67:58:15
-----BEGIN CERTIFICATE-----
MIIETTCCAzWgAwIBAgIBAjANBgkqhkiG9w0BAQUFADCBiDELMAkGA1UEBhMCSlAx
DjAMBgNVBAgTBVRva3lvMR8wHQYDVQQKExZOaXBwb24gQy5BLkQuIENvLixMdGQu
MRQwEgYDVQQLEwtJVCBEaXZpc2lvbjEQMA4GA1UEAxMHUm9vdCBDQTEgMB4GCSqG
SIb3DQEJARYRa29tYXRhQG5jYWQuY28uanAwHhcNMTAxMTI1MjI1MzA0WhcNMTEx
MTI1MjI1MzA0WjCBljELMAkGA1UEBhMCSlAxDjAMBgNVBAgTBVRva3lvMR8wHQYD
VQQKExZOaXBwb24gQy5BLkQuIENvLixMdGQuMRQwEgYDVQQLEwtJVCBEaXZpc2lv
bjEeMBwGA1UEAxMVbG9jYWxob3N0LmxvY2FsZG9tYWluMSAwHgYJKoZIhvcNAQkB
FhFrb21hdGFAbmNhZC5jby5qcDCCASIwDQYJKoZIhvcNAQEBBQADggEPADCCAQoC
ggEBAOv30zRcDg3HYo4/awSm96OOmDde4oikj84G0PvoebnD3heaax9Uqmyk6gkq
FrxwLGhd2bekJmZJ9wF15n8HxEik0+eGYdQYDVlUh8EWb7R+bi1w7ec9x7k7gK2S
vH3EzKZJwEXm+rCD/NLtqAHb8VkWqMDf9zgcQdMcwzxw4Q8n/2CrdT76L87+zgPu
OeYkScgg313n5Sb1BDhyl3/Ft7xP7e8JhvpHkasEgOPb71TojkwyP5+K5NLzgF0/
2Hw7aavEDHZmg/Bz+wK4ozXWgRHM7jitlhy4atpHGzJJM4WsqCEZ5sep88i110G0
X73GfzTEDI7sLWxOfhULSsN52B0CAwEAAaOBsTCBrjAJBgNVHRMEAjAAMBEGCWCG
SAGG+EIBAQQEAwIFoDAsBglghkgBhvhCAQ0EHxYdT3BlblNTTCBHZW5lcmF0ZWQg
Q2VydGlmaWNhdGUwHQYDVR0OBBYEFFe1QnFqhz8nVcfBicQRVxMRuR2VMB8GA1Ud
IwQYMBaAFGUnkQ5ayGiGXT7qQIbPmI0gAm9aMCAGA1UdEQQZMBeCFWxvY2FsaG9z
dC5sb2NhbGRvbWFpbjANBgkqhkiG9w0BAQUFAAOCAQEAM+9wniDO/LJ1XLyCAHMq
A9oKafhdnEy99dTETHk3iYVJR/wy6WT9bQf7M47dzBUqRWr4Sqtl8jN46hnsfvmd
Mjt6US57EfqC6eiM+L8mGuIeWIpScqWghfsHUy0Gqjs6KUrGlTX7I/LAPpt0Mkuw
VHcC2VA4PBx47juS46NjE7j194JVI51gWiVTqCJg1d74SkXzrq5WQqBeUq+A8Z70
dIQ9UH2O6klfXscSSGHfpHKtWtCwJ5MxZ4RzB5nDxu5nI01X/+fz3P5LneRooJou
M9O23ShDIm5HleXuJ4Rfr3677vcgnjH8wGOemZksCgn0/TbtcpBwDudHZMJ/5mdY
FQ==
-----END CERTIFICATE-----
