Certificate:
    Data:
        Version: 3 (0x2)
        Serial Number: 0 (0x0)
        Signature Algorithm: sha1WithRSAEncryption
        Issuer: C=JP, ST=Tokyo, O=Nippon C.A.D. Co.,Ltd., OU=IT Division, CN=Sub CA/emailAddress=komata@ncad.co.jp
        Validity
            Not Before: Dec 11 08:40:05 2010 GMT
            Not After : Dec 11 08:40:05 2011 GMT
        Subject: C=JP, ST=Tokyo, O=Nippon C.A.D. Co.,Ltd., OU=IT Division, CN=client.sub.localdomain/emailAddress=komata@ncad.co.jp
        Subject Public Key Info:
            Public Key Algorithm: rsaEncryption
            RSA Public Key: (2048 bit)
                Modulus (2048 bit):
                    00:cb:8c:bb:24:e8:01:c3:6d:5d:f5:0b:08:0c:72:
                    06:97:c8:4c:b7:1b:e4:a2:ee:65:72:30:dc:bc:a7:
                    b6:a5:c2:55:75:19:97:8b:c7:0f:f2:8a:7f:e1:8a:
                    d0:5d:c0:79:64:62:5e:d3:0a:02:34:f2:bb:3f:09:
                    e7:c3:96:ef:70:15:cd:b8:5d:f1:ac:87:0d:4c:68:
                    38:a9:38:42:e8:14:e4:ee:41:b7:ad:02:35:af:f4:
                    28:ce:0a:76:9f:d0:2e:73:59:40:84:13:3a:84:fc:
                    8c:0e:db:e1:e0:05:72:f4:68:97:74:f2:74:26:81:
                    d3:25:76:0b:06:1d:49:0e:44:86:a1:c2:03:b7:1e:
                    d9:9f:a4:a3:88:6c:b3:c0:04:a1:48:dd:50:de:86:
                    96:43:58:50:be:1a:ae:b3:f7:f6:50:32:b2:c3:e4:
                    99:f7:bd:8b:96:60:1d:38:f0:95:ac:85:41:3a:6c:
                    cf:b3:5e:2f:0a:f4:d6:e6:c5:55:39:f4:d2:1e:b1:
                    eb:c8:ab:55:da:b4:34:5d:c3:5a:8a:6f:e3:69:91:
                    56:e5:e3:25:3b:0f:ef:a0:ea:93:3f:17:41:18:93:
                    6c:78:f0:65:b4:69:32:15:81:05:53:ea:07:31:06:
                    79:94:ae:fc:7a:d0:2a:d8:14:84:01:76:39:62:7c:
                    56:e5
                Exponent: 65537 (0x10001)
        X509v3 extensions:
            X509v3 Basic Constraints: 
                CA:FALSE
            Netscape Cert Type: 
                SSL Client, S/MIME
            Netscape Comment: 
                OpenSSL Generated Certificate
            X509v3 Subject Key Identifier: 
                2C:8F:D6:A2:7C:2E:89:97:5C:86:76:E1:AC:8D:16:56:74:4E:B9:D0
            X509v3 Authority Key Identifier: 
                keyid:90:65:ED:F8:FD:F5:8A:37:36:D0:7F:92:70:67:DA:C6:2D:18:5A:81

            X509v3 Subject Alternative Name: 
                DNS:client.sub.localdomain
    Signature Algorithm: sha1WithRSAEncryption
        97:90:22:5d:bb:c3:56:6d:20:c9:15:69:42:cc:46:31:80:7b:
        92:58:27:cf:e4:5f:87:99:7d:15:f4:82:04:25:f1:8c:23:bc:
        14:c3:af:ea:9b:1f:11:bf:4d:fb:2b:0f:f1:c5:c8:b2:4b:d2:
        c4:f4:34:0f:0d:5d:34:3f:45:48:b0:f9:e8:81:80:5a:6e:44:
        d3:cc:56:db:85:1a:9e:56:3b:96:ea:81:f6:0f:74:11:01:9a:
        93:52:d7:50:37:d4:68:39:57:78:a9:dd:4e:2c:15:87:c4:85:
        5d:f5:35:1c:bb:ab:2e:a1:7e:c7:a0:12:41:14:cf:be:38:34:
        d7:80:9f:fc:b2:a7:d7:d7:31:57:4a:32:c7:1d:8b:cd:f1:24:
        16:ce:4d:8b:65:ba:68:68:c7:c9:13:86:99:53:f3:9e:24:3a:
        b8:24:7d:72:ce:6e:5d:83:de:7c:0c:bb:8c:76:a1:54:47:f3:
        43:01:c7:f1:a4:b8:58:02:c4:ea:9b:6c:c5:71:6e:33:06:a1:
        26:ea:3a:2f:d4:df:19:c1:0e:08:60:cb:e7:7b:19:e2:02:15:
        64:9c:40:80:e1:a1:a8:f5:be:fc:4b:45:26:26:70:d2:3a:e4:
        8a:5d:c5:5a:d3:f1:e4:62:d8:44:07:f7:32:1c:fe:b3:5d:11:
        2e:8d:86:a5
-----BEGIN CERTIFICATE-----
MIIETjCCAzagAwIBAgIBADANBgkqhkiG9w0BAQUFADCBhzELMAkGA1UEBhMCSlAx
DjAMBgNVBAgTBVRva3lvMR8wHQYDVQQKExZOaXBwb24gQy5BLkQuIENvLixMdGQu
MRQwEgYDVQQLEwtJVCBEaXZpc2lvbjEPMA0GA1UEAxMGU3ViIENBMSAwHgYJKoZI
hvcNAQkBFhFrb21hdGFAbmNhZC5jby5qcDAeFw0xMDEyMTEwODQwMDVaFw0xMTEy
MTEwODQwMDVaMIGXMQswCQYDVQQGEwJKUDEOMAwGA1UECBMFVG9reW8xHzAdBgNV
BAoTFk5pcHBvbiBDLkEuRC4gQ28uLEx0ZC4xFDASBgNVBAsTC0lUIERpdmlzaW9u
MR8wHQYDVQQDExZjbGllbnQuc3ViLmxvY2FsZG9tYWluMSAwHgYJKoZIhvcNAQkB
FhFrb21hdGFAbmNhZC5jby5qcDCCASIwDQYJKoZIhvcNAQEBBQADggEPADCCAQoC
ggEBAMuMuyToAcNtXfULCAxyBpfITLcb5KLuZXIw3LyntqXCVXUZl4vHD/KKf+GK
0F3AeWRiXtMKAjTyuz8J58OW73AVzbhd8ayHDUxoOKk4QugU5O5Bt60CNa/0KM4K
dp/QLnNZQIQTOoT8jA7b4eAFcvRol3TydCaB0yV2CwYdSQ5EhqHCA7ce2Z+ko4hs
s8AEoUjdUN6GlkNYUL4arrP39lAyssPkmfe9i5ZgHTjwlayFQTpsz7NeLwr01ubF
VTn00h6x68irVdq0NF3DWopv42mRVuXjJTsP76Dqkz8XQRiTbHjwZbRpMhWBBVPq
BzEGeZSu/HrQKtgUhAF2OWJ8VuUCAwEAAaOBsjCBrzAJBgNVHRMEAjAAMBEGCWCG
SAGG+EIBAQQEAwIFoDAsBglghkgBhvhCAQ0EHxYdT3BlblNTTCBHZW5lcmF0ZWQg
Q2VydGlmaWNhdGUwHQYDVR0OBBYEFCyP1qJ8LomXXIZ24ayNFlZ0TrnQMB8GA1Ud
IwQYMBaAFJBl7fj99Yo3NtB/knBn2sYtGFqBMCEGA1UdEQQaMBiCFmNsaWVudC5z
dWIubG9jYWxkb21haW4wDQYJKoZIhvcNAQEFBQADggEBAJeQIl27w1ZtIMkVaULM
RjGAe5JYJ8/kX4eZfRX0ggQl8YwjvBTDr+qbHxG/TfsrD/HFyLJL0sT0NA8NXTQ/
RUiw+eiBgFpuRNPMVtuFGp5WO5bqgfYPdBEBmpNS11A31Gg5V3ip3U4sFYfEhV31
NRy7qy6hfsegEkEUz744NNeAn/yyp9fXMVdKMscdi83xJBbOTYtlumhox8kThplT
854kOrgkfXLObl2D3nwMu4x2oVRH80MBx/GkuFgCxOqbbMVxbjMGoSbqOi/U3xnB
Dghgy+d7GeICFWScQIDhoaj1vvxLRSYmcNI65IpdxVrT8eRi2EQH9zIc/rNdES6N
hqU=
-----END CERTIFICATE-----
