Certificate:
    Data:
        Version: 3 (0x2)
        Serial Number: 0 (0x0)
        Signature Algorithm: sha1WithRSAEncryption
        Issuer: C=JP, ST=Tokyo, O=Nippon C.A.D. Co.,Ltd., OU=IT Division, CN=Sub CA/emailAddress=komata@ncad.co.jp
        Validity
            Not Before: Dec 11 08:40:05 2010 GMT
            Not After : Dec 11 08:40:05 2011 GMT
        Subject: C=JP, ST=Tokyo, O=Nippon C.A.D. Co.,Ltd., OU=IT Division, CN=client.sub.localdomain/emailAddress=komata@ncad.co.jp
        Subject Public Key Info:
            Public Key Algorithm: rsaEncryption
            RSA Public Key: (2048 bit)
                Modulus (2048 bit):
                    00:cb:8c:bb:24:e8:01:c3:6d:5d:f5:0b:08:0c:72:
                    06:97:c8:4c:b7:1b:e4:a2:ee:65:72:30:dc:bc:a7:
                    b6:a5:c2:55:75:19:97:8b:c7:0f:f2:8a:7f:e1:8a:
                    d0:5d:c0:79:64:62:5e:d3:0a:02:34:f2:bb:3f:09:
                    e7:c3:96:ef:70:15:cd:b8:5d:f1:ac:87:0d:4c:68:
                    38:a9:38:42:e8:14:e4:ee:41:b7:ad:02:35:af:f4:
                    28:ce:0a:76:9f:d0:2e:73:59:40:84:13:3a:84:fc:
                    8c:0e:db:e1:e0:05:72:f4:68:97:74:f2:74:26:81:
                    d3:25:76:0b:06:1d:49:0e:44:86:a1:c2:03:b7:1e:
                    d9:9f:a4:a3:88:6c:b3:c0:04:a1:48:dd:50:de:86:
                    96:43:58:50:be:1a:ae:b3:f7:f6:50:32:b2:c3:e4:
                    99:f7:bd:8b:96:60:1d:38:f0:95:ac:85:41:3a:6c:
                    cf:b3:5e:2f:0a:f4:d6:e6:c5:55:39:f4:d2:1e:b1:
                    eb:c8:ab:55:da:b4:34:5d:c3:5a:8a:6f:e3:69:91:
                    56:e5:e3:25:3b:0f:ef:a0:ea:93:3f:17:41:18:93:
                    6c:78:f0:65:b4:69:32:15:81:05:53:ea:07:31:06:
                    79:94:ae:fc:7a:d0:2a:d8:14:84:01:76:39:62:7c:
                    56:e5
                Exponent: 65537 (0x10001)
        X509v3 extensions:
            X509v3 Basic Constraints: 
                CA:FALSE
            Netscape Cert Type: 
                SSL Client, S/MIME
            Netscape Comment: 
                OpenSSL Generated Certificate
            X509v3 Subject Key Identifier: 
                2C:8F:D6:A2:7C:2E:89:97:5C:86:76:E1:AC:8D:16:56:74:4E:B9:D0
            X509v3 Authority Key Identifier: 
                keyid:90:65:ED:F8:FD:F5:8A:37:36:D0:7F:92:70:67:DA:C6:2D:18:5A:81

            X509v3 Subject Alternative Name: 
                DNS:client.sub.localdomain
    Signature Algorithm: sha1WithRSAEncryption
        97:90:22:5d:bb:c3:56:6d:20:c9:15:69:42:cc:46:31:80:7b:
        92:58:27:cf:e4:5f:87:99:7d:15:f4:82:04:25:f1:8c:23:bc:
        14:c3:af:ea:9b:1f:11:bf:4d:fb:2b:0f:f1:c5:c8:b2:4b:d2:
        c4:f4:34:0f:0d:5d:34:3f:45:48:b0:f9:e8:81:80:5a:6e:44:
        d3:cc:56:db:85:1a:9e:56:3b:96:ea:81:f6:0f:74:11:01:9a:
        93:52:d7:50:37:d4:68:39:57:78:a9:dd:4e:2c:15:87:c4:85:
        5d:f5:35:1c:bb:ab:2e:a1:7e:c7:a0:12:41:14:cf:be:38:34:
        d7:80:9f:fc:b2:a7:d7:d7:31:57:4a:32:c7:1d:8b:cd:f1:24:
        16:ce:4d:8b:65:ba:68:68:c7:c9:13:86:99:53:f3:9e:24:3a:
        b8:24:7d:72:ce:6e:5d:83:de:7c:0c:bb:8c:76:a1:54:47:f3:
        43:01:c7:f1:a4:b8:58:02:c4:ea:9b:6c:c5:71:6e:33:06:a1:
        26:ea:3a:2f:d4:df:19:c1:0e:08:60:cb:e7:7b:19:e2:02:15:
        64:9c:40:80:e1:a1:a8:f5:be:fc:4b:45:26:26:70:d2:3a:e4:
        8a:5d:c5:5a:d3:f1:e4:62:d8:44:07:f7:32:1c:fe:b3:5d:11:
        2e:8d:86:a5
-----BEGIN CERTIFICATE-----
MIIETjCCAzagAwIBAgIBADANBgkqhkiG9w0BAQUFADCBhzELMAkGA1UEBhMCSlAx
DjAMBgNVBAgTBVRva3lvMR8wHQYDVQQKExZOaXBwb24gQy5BLkQuIENvLixMdGQu
MRQwEgYDVQQLEwtJVCBEaXZpc2lvbjEPMA0GA1UEAxMGU3ViIENBMSAwHgYJKoZI
hvcNAQkBFhFrb21hdGFAbmNhZC5jby5qcDAeFw0xMDEyMTEwODQwMDVaFw0xMTEy
MTEwODQwMDVaMIGXMQswCQYDVQQGEwJKUDEOMAwGA1UECBMFVG9reW8xHzAdBgNV
BAoTFk5pcHBvbiBDLkEuRC4gQ28uLEx0ZC4xFDASBgNVBAsTC0lUIERpdmlzaW9u
MR8wHQYDVQQDExZjbGllbnQuc3ViLmxvY2FsZG9tYWluMSAwHgYJKoZIhvcNAQkB
FhFrb21hdGFAbmNhZC5jby5qcDCCASIwDQYJKoZIhvcNAQEBBQADggEPADCCAQoC
ggEBAMuMuyToAcNtXfULCAxyBpfITLcb5KLuZXIw3LyntqXCVXUZl4vHD/KKf+GK
0F3AeWRiXtMKAjTyuz8J58OW73AVzbhd8ayHDUxoOKk4QugU5O5Bt60CNa/0KM4K
dp/QLnNZQIQTOoT8jA7b4eAFcvRol3TydCaB0yV2CwYdSQ5EhqHCA7ce2Z+ko4hs
s8AEoUjdUN6GlkNYUL4arrP39lAyssPkmfe9i5ZgHTjwlayFQTpsz7NeLwr01ubF
VTn00h6x68irVdq0NF3DWopv42mRVuXjJTsP76Dqkz8XQRiTbHjwZbRpMhWBBVPq
BzEGeZSu/HrQKtgUhAF2OWJ8VuUCAwEAAaOBsjCBrzAJBgNVHRMEAjAAMBEGCWCG
SAGG+EIBAQQEAwIFoDAsBglghkgBhvhCAQ0EHxYdT3BlblNTTCBHZW5lcmF0ZWQg
Q2VydGlmaWNhdGUwHQYDVR0OBBYEFCyP1qJ8LomXXIZ24ayNFlZ0TrnQMB8GA1Ud
IwQYMBaAFJBl7fj99Yo3NtB/knBn2sYtGFqBMCEGA1UdEQQaMBiCFmNsaWVudC5z
dWIubG9jYWxkb21haW4wDQYJKoZIhvcNAQEFBQADggEBAJeQIl27w1ZtIMkVaULM
RjGAe5JYJ8/kX4eZfRX0ggQl8YwjvBTDr+qbHxG/TfsrD/HFyLJL0sT0NA8NXTQ/
RUiw+eiBgFpuRNPMVtuFGp5WO5bqgfYPdBEBmpNS11A31Gg5V3ip3U4sFYfEhV31
NRy7qy6hfsegEkEUz744NNeAn/yyp9fXMVdKMscdi83xJBbOTYtlumhox8kThplT
854kOrgkfXLObl2D3nwMu4x2oVRH80MBx/GkuFgCxOqbbMVxbjMGoSbqOi/U3xnB
Dghgy+d7GeICFWScQIDhoaj1vvxLRSYmcNI65IpdxVrT8eRi2EQH9zIc/rNdES6N
hqU=
-----END CERTIFICATE-----
Certificate:
    Data:
        Version: 3 (0x2)
        Serial Number: 3 (0x3)
        Signature Algorithm: sha1WithRSAEncryption
        Issuer: C=JP, ST=Tokyo, O=Nippon C.A.D. Co.,Ltd., OU=IT Division, CN=Root CA/emailAddress=komata@ncad.co.jp
        Validity
            Not Before: Dec 11 08:33:37 2010 GMT
            Not After : Dec 11 08:33:37 2011 GMT
        Subject: C=JP, ST=Tokyo, O=Nippon C.A.D. Co.,Ltd., OU=IT Division, CN=Sub CA/emailAddress=komata@ncad.co.jp
        Subject Public Key Info:
            Public Key Algorithm: rsaEncryption
            RSA Public Key: (2048 bit)
                Modulus (2048 bit):
                    00:b4:2a:d0:3e:82:06:bd:4c:c8:bc:ab:ad:cc:86:
                    09:c5:6a:e2:a6:60:5a:ed:1b:f4:28:ca:d8:d8:c3:
                    d6:6b:49:43:e4:a4:de:47:31:16:0e:0d:7f:ee:db:
                    ca:d1:52:a7:e7:d3:45:5e:3f:9f:10:ba:98:57:33:
                    c9:a3:0a:0b:e2:51:53:99:22:4c:a0:b6:85:f8:59:
                    b2:e6:0f:ab:47:a0:ba:58:9a:be:6a:bc:d8:12:3e:
                    25:c9:dc:e9:ef:12:43:2b:f3:73:d0:cb:2a:7c:d4:
                    8f:9c:de:cc:4d:a8:18:c9:0f:dc:62:9e:b0:75:f1:
                    3f:b1:63:85:30:8e:c0:9f:0a:7f:9d:d3:ba:c2:09:
                    7f:3b:12:3b:1a:dc:d0:03:fd:d4:4f:e3:d1:7e:dd:
                    da:61:ed:de:8a:d9:d9:8b:c1:5e:4e:8b:60:5a:c5:
                    5b:75:c5:dd:2d:08:19:aa:ab:f9:91:27:0c:6c:73:
                    ff:ce:f0:1d:35:5d:ef:09:19:c3:3b:72:ca:55:94:
                    74:18:5a:78:9f:39:8d:64:ae:cf:1d:92:8d:f7:cc:
                    0f:a9:f3:9a:5b:24:26:29:93:31:1f:37:40:b8:89:
                    8b:1d:02:d6:90:f3:86:cd:36:16:81:f1:e9:bb:a5:
                    0d:11:7c:71:51:0c:9a:2d:cd:d2:7e:b3:07:e8:b3:
                    82:1d
                Exponent: 65537 (0x10001)
        X509v3 extensions:
            X509v3 Subject Key Identifier: 
                90:65:ED:F8:FD:F5:8A:37:36:D0:7F:92:70:67:DA:C6:2D:18:5A:81
            X509v3 Authority Key Identifier: 
                keyid:65:27:91:0E:5A:C8:68:86:5D:3E:EA:40:86:CF:98:8D:20:02:6F:5A
                DirName:/C=JP/ST=Tokyo/O=Nippon C.A.D. Co.,Ltd./OU=IT Division/CN=Root CA/emailAddress=komata@ncad.co.jp
                serial:00

            X509v3 Basic Constraints: 
                CA:TRUE
    Signature Algorithm: sha1WithRSAEncryption
        7a:71:ab:e8:ea:57:f3:92:97:15:0d:b1:2c:80:ea:59:41:46:
        07:0c:23:3f:8b:64:a8:e5:bd:48:fb:cd:3f:77:3a:d0:00:1b:
        0f:1e:0d:bd:a3:c0:0c:d0:ec:b1:3f:a3:1a:17:3f:02:93:3f:
        c6:2d:98:a5:40:4e:08:37:79:73:84:e3:27:aa:a1:36:dd:0f:
        01:bb:5a:5c:ce:69:2f:61:4b:a1:92:77:59:b1:a0:01:cc:cf:
        11:76:fc:e4:db:d7:84:32:28:55:c0:c1:c2:f0:6f:5a:66:78:
        39:dd:93:0d:0f:5e:dc:97:db:fd:33:39:29:07:39:3f:8a:ec:
        ec:9c:9b:32:93:3d:67:4c:1b:98:99:d7:32:76:ee:b3:b5:62:
        b8:67:18:f4:d8:5c:a0:74:70:c9:1e:83:55:fc:f7:17:cf:08:
        91:7f:4c:4c:6b:dc:1c:89:e8:ed:62:1e:0b:22:5f:dc:a4:8c:
        91:2f:07:52:ce:8f:1b:e7:1e:d7:b3:99:98:50:c4:98:dc:5f:
        40:6f:60:70:d0:03:2d:33:14:22:40:9f:3c:9a:2d:34:c9:97:
        b3:4e:36:2c:af:ef:53:7d:ce:19:91:4e:a4:a9:60:20:e5:5f:
        e5:97:36:8c:20:48:c9:d7:6c:f2:3c:2e:6d:f4:c7:bf:8b:62:
        dc:e2:0c:f7
-----BEGIN CERTIFICATE-----
MIIEdTCCA12gAwIBAgIBAzANBgkqhkiG9w0BAQUFADCBiDELMAkGA1UEBhMCSlAx
DjAMBgNVBAgTBVRva3lvMR8wHQYDVQQKExZOaXBwb24gQy5BLkQuIENvLixMdGQu
MRQwEgYDVQQLEwtJVCBEaXZpc2lvbjEQMA4GA1UEAxMHUm9vdCBDQTEgMB4GCSqG
SIb3DQEJARYRa29tYXRhQG5jYWQuY28uanAwHhcNMTAxMjExMDgzMzM3WhcNMTEx
MjExMDgzMzM3WjCBhzELMAkGA1UEBhMCSlAxDjAMBgNVBAgTBVRva3lvMR8wHQYD
VQQKExZOaXBwb24gQy5BLkQuIENvLixMdGQuMRQwEgYDVQQLEwtJVCBEaXZpc2lv
bjEPMA0GA1UEAxMGU3ViIENBMSAwHgYJKoZIhvcNAQkBFhFrb21hdGFAbmNhZC5j
by5qcDCCASIwDQYJKoZIhvcNAQEBBQADggEPADCCAQoCggEBALQq0D6CBr1MyLyr
rcyGCcVq4qZgWu0b9CjK2NjD1mtJQ+Sk3kcxFg4Nf+7bytFSp+fTRV4/nxC6mFcz
yaMKC+JRU5kiTKC2hfhZsuYPq0eguliavmq82BI+Jcnc6e8SQyvzc9DLKnzUj5ze
zE2oGMkP3GKesHXxP7FjhTCOwJ8Kf53TusIJfzsSOxrc0AP91E/j0X7d2mHt3orZ
2YvBXk6LYFrFW3XF3S0IGaqr+ZEnDGxz/87wHTVd7wkZwztyylWUdBhaeJ85jWSu
zx2SjffMD6nzmlskJimTMR83QLiJix0C1pDzhs02FoHx6bulDRF8cVEMmi3N0n6z
B+izgh0CAwEAAaOB6DCB5TAdBgNVHQ4EFgQUkGXt+P31ijc20H+ScGfaxi0YWoEw
gbUGA1UdIwSBrTCBqoAUZSeRDlrIaIZdPupAhs+YjSACb1qhgY6kgYswgYgxCzAJ
BgNVBAYTAkpQMQ4wDAYDVQQIEwVUb2t5bzEfMB0GA1UEChMWTmlwcG9uIEMuQS5E
LiBDby4sTHRkLjEUMBIGA1UECxMLSVQgRGl2aXNpb24xEDAOBgNVBAMTB1Jvb3Qg
Q0ExIDAeBgkqhkiG9w0BCQEWEWtvbWF0YUBuY2FkLmNvLmpwggEAMAwGA1UdEwQF
MAMBAf8wDQYJKoZIhvcNAQEFBQADggEBAHpxq+jqV/OSlxUNsSyA6llBRgcMIz+L
ZKjlvUj7zT93OtAAGw8eDb2jwAzQ7LE/oxoXPwKTP8YtmKVATgg3eXOE4yeqoTbd
DwG7WlzOaS9hS6GSd1mxoAHMzxF2/OTb14QyKFXAwcLwb1pmeDndkw0PXtyX2/0z
OSkHOT+K7OycmzKTPWdMG5iZ1zJ27rO1YrhnGPTYXKB0cMkeg1X89xfPCJF/TExr
3ByJ6O1iHgsiX9ykjJEvB1LOjxvnHtezmZhQxJjcX0BvYHDQAy0zFCJAnzyaLTTJ
l7NONiyv71N9zhmRTqSpYCDlX+WXNowgSMnXbPI8Lm30x7+LYtziDPc=
-----END CERTIFICATE-----
