Certificate:
    Data:
        Version: 3 (0x2)
        Serial Number: 0 (0x0)
        Signature Algorithm: sha1WithRSAEncryption
        Issuer: C=JP, ST=Tokyo, O=Nippon C.A.D. Co.,Ltd., OU=IT Division, CN=Root CA/emailAddress=komata@ncad.co.jp
        Validity
            Not Before: Nov 25 19:31:17 2010 GMT
            Not After : Nov 24 19:31:17 2013 GMT
        Subject: C=JP, ST=Tokyo, O=Nippon C.A.D. Co.,Ltd., OU=IT Division, CN=Root CA/emailAddress=komata@ncad.co.jp
        Subject Public Key Info:
            Public Key Algorithm: rsaEncryption
            RSA Public Key: (2048 bit)
                Modulus (2048 bit):
                    00:a9:5d:fe:92:af:8b:03:6f:29:84:4f:e6:5f:d2:
                    aa:95:59:16:3c:b1:01:d6:38:2a:04:8c:dd:6a:6e:
                    b9:f1:86:34:59:b7:8c:05:07:7a:83:64:55:79:33:
                    49:cf:c8:00:fb:80:8b:63:c2:e2:28:84:cf:44:a2:
                    5d:5d:92:24:41:13:45:44:eb:a7:43:bf:86:47:d6:
                    04:ba:12:6a:9a:ae:66:9f:1b:95:2c:67:fb:88:28:
                    5e:87:39:43:9f:9f:9c:70:2f:ce:ae:69:c7:ec:d2:
                    fa:9a:d5:98:1b:86:fc:f9:1f:53:b1:a5:ce:a2:07:
                    1e:08:dc:4c:b0:87:0e:37:eb:42:3b:52:9e:04:88:
                    e2:55:a3:28:ea:93:2a:ff:33:04:5c:90:90:2c:7c:
                    27:34:55:a2:6e:28:f4:52:dc:8c:3e:dc:a5:e3:24:
                    a9:12:b4:ef:b9:9b:b4:0e:37:c1:63:4b:bc:30:07:
                    72:0e:91:a5:0a:0c:ad:a6:46:85:e1:f0:8a:11:47:
                    8f:9c:02:7d:99:ec:8c:1c:fe:54:6b:43:e5:c6:65:
                    e8:c4:f7:fb:f6:dc:be:8c:61:cc:a7:41:64:63:86:
                    90:2c:bb:ca:03:25:af:3f:87:34:dc:82:6f:00:25:
                    61:95:3e:24:6c:4d:0d:28:12:ec:ab:cd:cc:4f:7c:
                    4d:0f
                Exponent: 65537 (0x10001)
        X509v3 extensions:
            X509v3 Basic Constraints: 
                CA:FALSE
            Netscape Comment: 
                OpenSSL Generated Certificate
            X509v3 Subject Key Identifier: 
                65:27:91:0E:5A:C8:68:86:5D:3E:EA:40:86:CF:98:8D:20:02:6F:5A
            X509v3 Authority Key Identifier: 
                keyid:65:27:91:0E:5A:C8:68:86:5D:3E:EA:40:86:CF:98:8D:20:02:6F:5A

    Signature Algorithm: sha1WithRSAEncryption
        58:e3:f4:e8:3c:ae:8d:3c:fd:98:4f:36:d0:f3:73:fe:41:0e:
        51:97:85:b4:cb:85:c0:02:c0:83:63:50:c1:b6:74:c9:96:9c:
        7d:d5:43:87:4b:3e:7e:e9:10:5a:3f:98:81:c6:19:da:56:21:
        7f:b0:c7:08:65:5f:68:61:ae:af:30:80:56:08:00:cd:5f:b9:
        1f:b7:bb:08:18:b0:79:63:2b:3a:76:d3:e1:18:08:b2:18:14:
        b2:e9:c0:85:f9:ce:0e:34:2d:a4:0f:53:a6:4e:66:4b:34:0b:
        f2:68:43:ed:cb:d6:86:b0:b7:58:c7:73:e3:34:bc:d7:ce:62:
        77:09:5a:99:58:a3:82:0d:f3:e3:57:20:f9:5c:3c:d0:15:0f:
        36:60:ff:22:31:5a:19:7f:20:f2:b9:c0:b9:ed:c0:9b:1b:91:
        1a:a1:c7:d6:05:06:1e:c4:2f:e8:0a:87:82:80:db:52:a3:d0:
        c1:99:2b:5a:07:03:b6:2e:ed:ef:b5:5a:8f:27:56:d6:13:cd:
        5d:86:ed:cf:5f:1c:83:ed:c7:e0:0b:f6:aa:ad:f9:25:02:85:
        01:40:93:20:25:e5:ca:8c:8e:b3:a5:a4:2f:45:29:20:c8:b6:
        86:51:5d:4c:03:ec:43:b4:9e:0b:ca:92:cb:4b:fa:25:3c:e5:
        38:fd:5c:89
-----BEGIN CERTIFICATE-----
MIIECDCCAvCgAwIBAgIBADANBgkqhkiG9w0BAQUFADCBiDELMAkGA1UEBhMCSlAx
DjAMBgNVBAgTBVRva3lvMR8wHQYDVQQKExZOaXBwb24gQy5BLkQuIENvLixMdGQu
MRQwEgYDVQQLEwtJVCBEaXZpc2lvbjEQMA4GA1UEAxMHUm9vdCBDQTEgMB4GCSqG
SIb3DQEJARYRa29tYXRhQG5jYWQuY28uanAwHhcNMTAxMTI1MTkzMTE3WhcNMTMx
MTI0MTkzMTE3WjCBiDELMAkGA1UEBhMCSlAxDjAMBgNVBAgTBVRva3lvMR8wHQYD
VQQKExZOaXBwb24gQy5BLkQuIENvLixMdGQuMRQwEgYDVQQLEwtJVCBEaXZpc2lv
bjEQMA4GA1UEAxMHUm9vdCBDQTEgMB4GCSqGSIb3DQEJARYRa29tYXRhQG5jYWQu
Y28uanAwggEiMA0GCSqGSIb3DQEBAQUAA4IBDwAwggEKAoIBAQCpXf6Sr4sDbymE
T+Zf0qqVWRY8sQHWOCoEjN1qbrnxhjRZt4wFB3qDZFV5M0nPyAD7gItjwuIohM9E
ol1dkiRBE0VE66dDv4ZH1gS6EmqarmafG5UsZ/uIKF6HOUOfn5xwL86uacfs0vqa
1Zgbhvz5H1Oxpc6iBx4I3Eywhw4360I7Up4EiOJVoyjqkyr/MwRckJAsfCc0VaJu
KPRS3Iw+3KXjJKkStO+5m7QON8FjS7wwB3IOkaUKDK2mRoXh8IoRR4+cAn2Z7Iwc
/lRrQ+XGZejE9/v23L6MYcynQWRjhpAsu8oDJa8/hzTcgm8AJWGVPiRsTQ0oEuyr
zcxPfE0PAgMBAAGjezB5MAkGA1UdEwQCMAAwLAYJYIZIAYb4QgENBB8WHU9wZW5T
U0wgR2VuZXJhdGVkIENlcnRpZmljYXRlMB0GA1UdDgQWBBRlJ5EOWshohl0+6kCG
z5iNIAJvWjAfBgNVHSMEGDAWgBRlJ5EOWshohl0+6kCGz5iNIAJvWjANBgkqhkiG
9w0BAQUFAAOCAQEAWOP06DyujTz9mE820PNz/kEOUZeFtMuFwALAg2NQwbZ0yZac
fdVDh0s+fukQWj+YgcYZ2lYhf7DHCGVfaGGurzCAVggAzV+5H7e7CBiweWMrOnbT
4RgIshgUsunAhfnODjQtpA9Tpk5mSzQL8mhD7cvWhrC3WMdz4zS8185idwlamVij
gg3z41cg+Vw80BUPNmD/IjFaGX8g8rnAue3AmxuRGqHH1gUGHsQv6AqHgoDbUqPQ
wZkrWgcDti7t77VajydW1hPNXYbtz18cg+3H4Av2qq35JQKFAUCTICXlyoyOs6Wk
L0UpIMi2hlFdTAPsQ7SeC8qSy0v6JTzlOP1ciQ==
-----END CERTIFICATE-----
