Certificate:
    Data:
        Version: 3 (0x2)
        Serial Number: 3 (0x3)
        Signature Algorithm: sha1WithRSAEncryption
        Issuer: C=JP, ST=Tokyo, O=Nippon C.A.D. Co.,Ltd., OU=IT Division, CN=Root CA/emailAddress=komata@ncad.co.jp
        Validity
            Not Before: Dec 11 08:33:37 2010 GMT
            Not After : Dec 11 08:33:37 2011 GMT
        Subject: C=JP, ST=Tokyo, O=Nippon C.A.D. Co.,Ltd., OU=IT Division, CN=Sub CA/emailAddress=komata@ncad.co.jp
        Subject Public Key Info:
            Public Key Algorithm: rsaEncryption
            RSA Public Key: (2048 bit)
                Modulus (2048 bit):
                    00:b4:2a:d0:3e:82:06:bd:4c:c8:bc:ab:ad:cc:86:
                    09:c5:6a:e2:a6:60:5a:ed:1b:f4:28:ca:d8:d8:c3:
                    d6:6b:49:43:e4:a4:de:47:31:16:0e:0d:7f:ee:db:
                    ca:d1:52:a7:e7:d3:45:5e:3f:9f:10:ba:98:57:33:
                    c9:a3:0a:0b:e2:51:53:99:22:4c:a0:b6:85:f8:59:
                    b2:e6:0f:ab:47:a0:ba:58:9a:be:6a:bc:d8:12:3e:
                    25:c9:dc:e9:ef:12:43:2b:f3:73:d0:cb:2a:7c:d4:
                    8f:9c:de:cc:4d:a8:18:c9:0f:dc:62:9e:b0:75:f1:
                    3f:b1:63:85:30:8e:c0:9f:0a:7f:9d:d3:ba:c2:09:
                    7f:3b:12:3b:1a:dc:d0:03:fd:d4:4f:e3:d1:7e:dd:
                    da:61:ed:de:8a:d9:d9:8b:c1:5e:4e:8b:60:5a:c5:
                    5b:75:c5:dd:2d:08:19:aa:ab:f9:91:27:0c:6c:73:
                    ff:ce:f0:1d:35:5d:ef:09:19:c3:3b:72:ca:55:94:
                    74:18:5a:78:9f:39:8d:64:ae:cf:1d:92:8d:f7:cc:
                    0f:a9:f3:9a:5b:24:26:29:93:31:1f:37:40:b8:89:
                    8b:1d:02:d6:90:f3:86:cd:36:16:81:f1:e9:bb:a5:
                    0d:11:7c:71:51:0c:9a:2d:cd:d2:7e:b3:07:e8:b3:
                    82:1d
                Exponent: 65537 (0x10001)
        X509v3 extensions:
            X509v3 Subject Key Identifier: 
                90:65:ED:F8:FD:F5:8A:37:36:D0:7F:92:70:67:DA:C6:2D:18:5A:81
            X509v3 Authority Key Identifier: 
                keyid:65:27:91:0E:5A:C8:68:86:5D:3E:EA:40:86:CF:98:8D:20:02:6F:5A
                DirName:/C=JP/ST=Tokyo/O=Nippon C.A.D. Co.,Ltd./OU=IT Division/CN=Root CA/emailAddress=komata@ncad.co.jp
                serial:00

            X509v3 Basic Constraints: 
                CA:TRUE
    Signature Algorithm: sha1WithRSAEncryption
        7a:71:ab:e8:ea:57:f3:92:97:15:0d:b1:2c:80:ea:59:41:46:
        07:0c:23:3f:8b:64:a8:e5:bd:48:fb:cd:3f:77:3a:d0:00:1b:
        0f:1e:0d:bd:a3:c0:0c:d0:ec:b1:3f:a3:1a:17:3f:02:93:3f:
        c6:2d:98:a5:40:4e:08:37:79:73:84:e3:27:aa:a1:36:dd:0f:
        01:bb:5a:5c:ce:69:2f:61:4b:a1:92:77:59:b1:a0:01:cc:cf:
        11:76:fc:e4:db:d7:84:32:28:55:c0:c1:c2:f0:6f:5a:66:78:
        39:dd:93:0d:0f:5e:dc:97:db:fd:33:39:29:07:39:3f:8a:ec:
        ec:9c:9b:32:93:3d:67:4c:1b:98:99:d7:32:76:ee:b3:b5:62:
        b8:67:18:f4:d8:5c:a0:74:70:c9:1e:83:55:fc:f7:17:cf:08:
        91:7f:4c:4c:6b:dc:1c:89:e8:ed:62:1e:0b:22:5f:dc:a4:8c:
        91:2f:07:52:ce:8f:1b:e7:1e:d7:b3:99:98:50:c4:98:dc:5f:
        40:6f:60:70:d0:03:2d:33:14:22:40:9f:3c:9a:2d:34:c9:97:
        b3:4e:36:2c:af:ef:53:7d:ce:19:91:4e:a4:a9:60:20:e5:5f:
        e5:97:36:8c:20:48:c9:d7:6c:f2:3c:2e:6d:f4:c7:bf:8b:62:
        dc:e2:0c:f7
-----BEGIN CERTIFICATE-----
MIIEdTCCA12gAwIBAgIBAzANBgkqhkiG9w0BAQUFADCBiDELMAkGA1UEBhMCSlAx
DjAMBgNVBAgTBVRva3lvMR8wHQYDVQQKExZOaXBwb24gQy5BLkQuIENvLixMdGQu
MRQwEgYDVQQLEwtJVCBEaXZpc2lvbjEQMA4GA1UEAxMHUm9vdCBDQTEgMB4GCSqG
SIb3DQEJARYRa29tYXRhQG5jYWQuY28uanAwHhcNMTAxMjExMDgzMzM3WhcNMTEx
MjExMDgzMzM3WjCBhzELMAkGA1UEBhMCSlAxDjAMBgNVBAgTBVRva3lvMR8wHQYD
VQQKExZOaXBwb24gQy5BLkQuIENvLixMdGQuMRQwEgYDVQQLEwtJVCBEaXZpc2lv
bjEPMA0GA1UEAxMGU3ViIENBMSAwHgYJKoZIhvcNAQkBFhFrb21hdGFAbmNhZC5j
by5qcDCCASIwDQYJKoZIhvcNAQEBBQADggEPADCCAQoCggEBALQq0D6CBr1MyLyr
rcyGCcVq4qZgWu0b9CjK2NjD1mtJQ+Sk3kcxFg4Nf+7bytFSp+fTRV4/nxC6mFcz
yaMKC+JRU5kiTKC2hfhZsuYPq0eguliavmq82BI+Jcnc6e8SQyvzc9DLKnzUj5ze
zE2oGMkP3GKesHXxP7FjhTCOwJ8Kf53TusIJfzsSOxrc0AP91E/j0X7d2mHt3orZ
2YvBXk6LYFrFW3XF3S0IGaqr+ZEnDGxz/87wHTVd7wkZwztyylWUdBhaeJ85jWSu
zx2SjffMD6nzmlskJimTMR83QLiJix0C1pDzhs02FoHx6bulDRF8cVEMmi3N0n6z
B+izgh0CAwEAAaOB6DCB5TAdBgNVHQ4EFgQUkGXt+P31ijc20H+ScGfaxi0YWoEw
gbUGA1UdIwSBrTCBqoAUZSeRDlrIaIZdPupAhs+YjSACb1qhgY6kgYswgYgxCzAJ
BgNVBAYTAkpQMQ4wDAYDVQQIEwVUb2t5bzEfMB0GA1UEChMWTmlwcG9uIEMuQS5E
LiBDby4sTHRkLjEUMBIGA1UECxMLSVQgRGl2aXNpb24xEDAOBgNVBAMTB1Jvb3Qg
Q0ExIDAeBgkqhkiG9w0BCQEWEWtvbWF0YUBuY2FkLmNvLmpwggEAMAwGA1UdEwQF
MAMBAf8wDQYJKoZIhvcNAQEFBQADggEBAHpxq+jqV/OSlxUNsSyA6llBRgcMIz+L
ZKjlvUj7zT93OtAAGw8eDb2jwAzQ7LE/oxoXPwKTP8YtmKVATgg3eXOE4yeqoTbd
DwG7WlzOaS9hS6GSd1mxoAHMzxF2/OTb14QyKFXAwcLwb1pmeDndkw0PXtyX2/0z
OSkHOT+K7OycmzKTPWdMG5iZ1zJ27rO1YrhnGPTYXKB0cMkeg1X89xfPCJF/TExr
3ByJ6O1iHgsiX9ykjJEvB1LOjxvnHtezmZhQxJjcX0BvYHDQAy0zFCJAnzyaLTTJ
l7NONiyv71N9zhmRTqSpYCDlX+WXNowgSMnXbPI8Lm30x7+LYtziDPc=
-----END CERTIFICATE-----
