Certificate:
    Data:
        Version: 3 (0x2)
        Serial Number: 1 (0x1)
        Signature Algorithm: sha1WithRSAEncryption
        Issuer: C=JP, ST=Tokyo, O=Nippon C.A.D. Co.,Ltd., OU=IT Division, CN=Root CA/emailAddress=komata@ncad.co.jp
        Validity
            Not Before: Nov 25 19:44:24 2010 GMT
            Not After : Nov 25 19:44:24 2011 GMT
        Subject: C=JP, ST=Tokyo, O=Nippon C.A.D. Co.,Ltd., OU=IT Division, CN=localhost.localdomain/emailAddress=komata@ncad.co.jp
        Subject Public Key Info:
            Public Key Algorithm: rsaEncryption
            RSA Public Key: (2048 bit)
                Modulus (2048 bit):
                    00:dd:b1:3c:cc:e4:ab:57:4e:be:c5:00:8f:76:2f:
                    61:be:33:fc:83:d9:a1:7f:2e:12:9e:e2:47:32:ee:
                    c6:d0:1b:3b:47:d9:c3:7b:9e:40:41:e6:2e:6a:f9:
                    0f:54:f6:18:99:60:b0:bc:af:4b:5a:5b:7f:12:7d:
                    7f:e3:97:db:9c:da:97:ac:1c:bf:3f:97:dc:04:1e:
                    5b:f2:1f:dc:a3:d1:5b:6c:2b:58:32:a4:18:1b:98:
                    9b:24:71:d3:47:cc:7d:54:35:a8:87:fe:48:e2:97:
                    30:ab:59:9a:20:af:11:13:8d:47:0e:e5:76:6b:24:
                    e4:8f:69:6d:94:3f:cf:3e:1a:28:b3:7c:84:4d:4a:
                    07:ef:96:4e:ae:34:0c:97:22:fa:20:24:2d:f5:ab:
                    ff:a7:b4:c4:27:50:cb:54:ff:cc:c5:8f:93:2c:43:
                    1e:dd:af:13:46:34:ee:2b:aa:c3:bb:87:89:90:1a:
                    b6:88:46:e7:ab:39:36:30:e4:e6:09:87:b6:fc:4f:
                    03:f2:a4:36:c6:a8:2e:ea:08:97:f0:bc:e3:dc:29:
                    40:56:99:26:75:69:be:d9:9b:6f:69:ee:d2:fd:93:
                    53:0f:fc:e4:10:82:12:03:8f:23:5c:87:0a:b7:53:
                    ad:f9:47:31:a8:80:e0:fc:42:21:62:6d:ad:86:24:
                    73:3f
                Exponent: 65537 (0x10001)
        X509v3 extensions:
            X509v3 Basic Constraints: 
                CA:FALSE
            Netscape Cert Type: 
                SSL Server
            Netscape Comment: 
                OpenSSL Generated Certificate
            X509v3 Subject Key Identifier: 
                DD:48:69:53:78:86:94:36:4C:07:99:3F:11:ED:3E:98:2C:10:F4:AB
            X509v3 Authority Key Identifier: 
                keyid:65:27:91:0E:5A:C8:68:86:5D:3E:EA:40:86:CF:98:8D:20:02:6F:5A

            X509v3 Subject Alternative Name: 
                DNS:localhost.localdomain
    Signature Algorithm: sha1WithRSAEncryption
        00:88:a2:82:d1:6d:ba:c2:35:4e:01:08:cb:db:49:d5:5b:89:
        62:7a:30:be:df:cd:80:8e:22:02:12:42:9b:62:5d:0f:f0:9a:
        d8:14:d3:e1:cd:f3:46:7f:f7:bd:00:11:a1:6e:67:cc:0b:36:
        eb:06:d8:44:45:68:48:d7:5e:5e:49:5b:fa:ab:aa:75:62:30:
        0a:ef:1e:74:cb:03:84:a3:16:a3:07:75:68:cc:ff:a5:3b:cb:
        b2:cc:ad:5b:b2:8d:40:2f:25:eb:25:b0:88:1f:ab:a9:ac:c6:
        f7:ed:e1:1f:58:3a:e8:6d:a1:52:58:3c:4b:fb:0c:3e:ae:47:
        c6:2f:2d:b2:af:45:a4:75:be:5d:a4:85:5f:d8:0b:b9:c7:b3:
        b4:5f:1b:3a:b0:23:50:cc:28:36:57:2e:6c:62:5a:28:d1:fb:
        01:c3:42:36:52:5a:15:4f:14:59:75:7f:37:15:39:e6:65:3b:
        5b:09:69:16:02:ad:40:cc:fd:52:d6:14:3e:82:9a:2e:42:35:
        ea:ce:69:51:a6:0a:23:27:fa:88:bd:53:bd:55:ff:3d:9c:4b:
        fc:61:3d:ed:e8:15:e8:61:5b:fb:c7:f9:29:cb:63:36:18:e1:
        48:1d:97:27:9b:2a:bd:13:16:a8:c9:de:01:ca:5c:37:a6:78:
        ab:d5:59:0a
-----BEGIN CERTIFICATE-----
MIIETTCCAzWgAwIBAgIBATANBgkqhkiG9w0BAQUFADCBiDELMAkGA1UEBhMCSlAx
DjAMBgNVBAgTBVRva3lvMR8wHQYDVQQKExZOaXBwb24gQy5BLkQuIENvLixMdGQu
MRQwEgYDVQQLEwtJVCBEaXZpc2lvbjEQMA4GA1UEAxMHUm9vdCBDQTEgMB4GCSqG
SIb3DQEJARYRa29tYXRhQG5jYWQuY28uanAwHhcNMTAxMTI1MTk0NDI0WhcNMTEx
MTI1MTk0NDI0WjCBljELMAkGA1UEBhMCSlAxDjAMBgNVBAgTBVRva3lvMR8wHQYD
VQQKExZOaXBwb24gQy5BLkQuIENvLixMdGQuMRQwEgYDVQQLEwtJVCBEaXZpc2lv
bjEeMBwGA1UEAxMVbG9jYWxob3N0LmxvY2FsZG9tYWluMSAwHgYJKoZIhvcNAQkB
FhFrb21hdGFAbmNhZC5jby5qcDCCASIwDQYJKoZIhvcNAQEBBQADggEPADCCAQoC
ggEBAN2xPMzkq1dOvsUAj3YvYb4z/IPZoX8uEp7iRzLuxtAbO0fZw3ueQEHmLmr5
D1T2GJlgsLyvS1pbfxJ9f+OX25zal6wcvz+X3AQeW/If3KPRW2wrWDKkGBuYmyRx
00fMfVQ1qIf+SOKXMKtZmiCvERONRw7ldmsk5I9pbZQ/zz4aKLN8hE1KB++WTq40
DJci+iAkLfWr/6e0xCdQy1T/zMWPkyxDHt2vE0Y07iuqw7uHiZAatohG56s5NjDk
5gmHtvxPA/KkNsaoLuoIl/C849wpQFaZJnVpvtmbb2nu0v2TUw/85BCCEgOPI1yH
CrdTrflHMaiA4PxCIWJtrYYkcz8CAwEAAaOBsTCBrjAJBgNVHRMEAjAAMBEGCWCG
SAGG+EIBAQQEAwIGQDAsBglghkgBhvhCAQ0EHxYdT3BlblNTTCBHZW5lcmF0ZWQg
Q2VydGlmaWNhdGUwHQYDVR0OBBYEFN1IaVN4hpQ2TAeZPxHtPpgsEPSrMB8GA1Ud
IwQYMBaAFGUnkQ5ayGiGXT7qQIbPmI0gAm9aMCAGA1UdEQQZMBeCFWxvY2FsaG9z
dC5sb2NhbGRvbWFpbjANBgkqhkiG9w0BAQUFAAOCAQEAAIiigtFtusI1TgEIy9tJ
1VuJYnowvt/NgI4iAhJCm2JdD/Ca2BTT4c3zRn/3vQARoW5nzAs26wbYREVoSNde
Xklb+quqdWIwCu8edMsDhKMWowd1aMz/pTvLssytW7KNQC8l6yWwiB+rqazG9+3h
H1g66G2hUlg8S/sMPq5Hxi8tsq9FpHW+XaSFX9gLuceztF8bOrAjUMwoNlcubGJa
KNH7AcNCNlJaFU8UWXV/NxU55mU7WwlpFgKtQMz9UtYUPoKaLkI16s5pUaYKIyf6
iL1TvVX/PZxL/GE97egV6GFb+8f5KctjNhjhSB2XJ5sqvRMWqMneAcpcN6Z4q9VZ
Cg==
-----END CERTIFICATE-----
